; Function Attrs: mustprogress uwtable
define noundef nonnull align 8 dereferenceable(8) ptr @_ZN6casadi6SXElemaSEd(ptr noundef nonnull returned align 8 dereferenceable(8) %0, double noundef %1) local_unnamed_addr #6 align 2 {
  %3 = alloca %"class.casadi::SXElem", align 8
  call void @_ZN6casadi6SXElemC1Ed(ptr noundef nonnull align 8 dereferenceable(8) %3, double noundef %1)
  %4 = load ptr, ptr %0, align 8
  %5 = load ptr, ptr %3, align 8
  %6 = icmp eq ptr %4, %5
  br i1 %6, label %_ZN6casadi6SXElemaSERKS0_.exit, label %7

7:                                                ; preds = %2
  %8 = getelementptr inbounds i8, ptr %4, i64 12
  %9 = load i32, ptr %8, align 4
  %10 = add i32 %9, -1
  store i32 %10, ptr %8, align 4
  %11 = icmp eq i32 %10, 0
  br i1 %11, label %12, label %19

12:                                               ; preds = %7
  %13 = load ptr, ptr %0, align 8
  %14 = icmp eq ptr %13, null
  br i1 %14, label %19, label %15

15:                                               ; preds = %12
  %16 = load ptr, ptr %13, align 8
  %17 = getelementptr inbounds i8, ptr %16, i64 8
  %18 = load ptr, ptr %17, align 8
  call void %18(ptr noundef nonnull align 8 dereferenceable(16) %13) #25
  %.pre = load ptr, ptr %3, align 8
  br label %19

19:                                               ; preds = %15, %12, %7
  %20 = phi ptr [ %.pre, %15 ], [ %5, %12 ], [ %5, %7 ]
  store ptr %20, ptr %0, align 8
  %21 = getelementptr inbounds i8, ptr %20, i64 12
  %22 = load i32, ptr %21, align 4
  %23 = add i32 %22, 1
  store i32 %23, ptr %21, align 4
  br label %_ZN6casadi6SXElemaSERKS0_.exit

_ZN6casadi6SXElemaSERKS0_.exit:                   ; preds = %2, %19
  call void @_ZN6casadi6SXElemD1Ev(ptr noundef nonnull align 8 dereferenceable(8) %3) #25
  ret ptr %0
}